target datalayout = "e-m:e-p270:32:32-p271:32:32-p272:64:64-i64:64-i128:128-f80:128-n8:16:32:64-S128"
target triple = "x86_64-pc-linux-gnu"

%struct.bio_st = type { ptr, ptr, ptr, ptr, ptr, i32, i32, i32, i32, i32, ptr, ptr, ptr, %struct.CRYPTO_REF_COUNT, i64, i64, %struct.crypto_ex_data_st }
%struct.CRYPTO_REF_COUNT = type { i32 }
%struct.crypto_ex_data_st = type { ptr, ptr }
%struct.bio_dgram_pair_st = type { ptr, %struct.ring_buf, i64, i64, i32, ptr, ptr, i8 }
%struct.ring_buf = type { ptr, i64, i64, [2 x i64] }

@.str.2 = private unnamed_addr constant [39 x i8] c"../openssl/crypto/bio/bss_dgram_pair.c\00", align 1

; Function Attrs: nounwind uwtable
define internal void @ring_buf_destroy(ptr noundef %0) #0 {
  %2 = alloca ptr, align 8
  store ptr %0, ptr %2, align 8, !tbaa !57
  %3 = load ptr, ptr %2, align 8, !tbaa !57
  %4 = getelementptr inbounds nuw %struct.ring_buf, ptr %3, i32 0, i32 0
  %5 = load ptr, ptr %4, align 8, !tbaa !63
  call void @CRYPTO_free(ptr noundef %5, ptr noundef @.str.2, i32 noundef 48)
  %6 = load ptr, ptr %2, align 8, !tbaa !57
  %7 = getelementptr inbounds nuw %struct.ring_buf, ptr %6, i32 0, i32 0
  store ptr null, ptr %7, align 8, !tbaa !63
  %8 = load ptr, ptr %2, align 8, !tbaa !57
  %9 = getelementptr inbounds nuw %struct.ring_buf, ptr %8, i32 0, i32 1
  store i64 0, ptr %9, align 8, !tbaa !61
  %10 = load ptr, ptr %2, align 8, !tbaa !57
  %11 = getelementptr inbounds nuw %struct.ring_buf, ptr %10, i32 0, i32 2
  store i64 0, ptr %11, align 8, !tbaa !62
  ret void
}

; Function Attrs: nounwind uwtable
define internal i32 @dgram_pair_ctrl_destroy_bio_pair(ptr noundef %0) #0 {
  %2 = alloca i32, align 4
  %3 = alloca ptr, align 8
  %4 = alloca ptr, align 8
  %5 = alloca ptr, align 8
  %6 = alloca ptr, align 8
  %7 = alloca i32, align 4
  store ptr %0, ptr %3, align 8, !tbaa !12
  call void @llvm.lifetime.start.p0(i64 8, ptr %4) #8
  call void @llvm.lifetime.start.p0(i64 8, ptr %5) #8
  %8 = load ptr, ptr %3, align 8, !tbaa !12
  %9 = getelementptr inbounds nuw %struct.bio_st, ptr %8, i32 0, i32 10
  %10 = load ptr, ptr %9, align 8, !tbaa !16
  store ptr %10, ptr %5, align 8, !tbaa !23
  call void @llvm.lifetime.start.p0(i64 8, ptr %6) #8
  %11 = load ptr, ptr %5, align 8, !tbaa !23
  %12 = getelementptr inbounds nuw %struct.bio_dgram_pair_st, ptr %11, i32 0, i32 1
  call void @ring_buf_destroy(ptr noundef %12)
  %13 = load ptr, ptr %3, align 8, !tbaa !12
  %14 = getelementptr inbounds nuw %struct.bio_st, ptr %13, i32 0, i32 5
  store i32 0, ptr %14, align 8, !tbaa !45
  %15 = load ptr, ptr %5, align 8, !tbaa !23
  %16 = getelementptr inbounds nuw %struct.bio_dgram_pair_st, ptr %15, i32 0, i32 5
  %17 = load ptr, ptr %16, align 8, !tbaa !54
  call void @BIO_ADDR_free(ptr noundef %17)
  %18 = load ptr, ptr %5, align 8, !tbaa !23
  %19 = getelementptr inbounds nuw %struct.bio_dgram_pair_st, ptr %18, i32 0, i32 0
  %20 = load ptr, ptr %19, align 8, !tbaa !29
  %21 = icmp eq ptr %20, null
  br i1 %21, label %22, label %23

22:                                               ; preds = %1
  store i32 1, ptr %2, align 4
  store i32 1, ptr %7, align 4
  br label %53

23:                                               ; preds = %1
  %24 = load ptr, ptr %5, align 8, !tbaa !23
  %25 = getelementptr inbounds nuw %struct.bio_dgram_pair_st, ptr %24, i32 0, i32 0
  %26 = load ptr, ptr %25, align 8, !tbaa !29
  store ptr %26, ptr %4, align 8, !tbaa !12
  %27 = load ptr, ptr %4, align 8, !tbaa !12
  %28 = getelementptr inbounds nuw %struct.bio_st, ptr %27, i32 0, i32 10
  %29 = load ptr, ptr %28, align 8, !tbaa !16
  store ptr %29, ptr %6, align 8, !tbaa !23
  %30 = load ptr, ptr %6, align 8, !tbaa !23
  %31 = getelementptr inbounds nuw %struct.bio_dgram_pair_st, ptr %30, i32 0, i32 0
  %32 = load ptr, ptr %31, align 8, !tbaa !29
  %33 = load ptr, ptr %3, align 8, !tbaa !12
  %34 = icmp eq ptr %32, %33
  %35 = zext i1 %34 to i32
  %36 = icmp ne i32 %35, 0
  %37 = xor i1 %36, true
  %38 = xor i1 %37, true
  %39 = zext i1 %38 to i32
  %40 = sext i32 %39 to i64
  %41 = call i64 @llvm.expect.i64(i64 %40, i64 1)
  %42 = icmp ne i64 %41, 0
  br i1 %42, label %44, label %43

43:                                               ; preds = %23
  store i32 0, ptr %2, align 4
  store i32 1, ptr %7, align 4
  br label %53

44:                                               ; preds = %23
  %45 = load ptr, ptr %6, align 8, !tbaa !23
  %46 = getelementptr inbounds nuw %struct.bio_dgram_pair_st, ptr %45, i32 0, i32 1
  call void @ring_buf_destroy(ptr noundef %46)
  %47 = load ptr, ptr %4, align 8, !tbaa !12
  %48 = getelementptr inbounds nuw %struct.bio_st, ptr %47, i32 0, i32 5
  store i32 0, ptr %48, align 8, !tbaa !45
  %49 = load ptr, ptr %5, align 8, !tbaa !23
  %50 = getelementptr inbounds nuw %struct.bio_dgram_pair_st, ptr %49, i32 0, i32 0
  store ptr null, ptr %50, align 8, !tbaa !29
  %51 = load ptr, ptr %6, align 8, !tbaa !23
  %52 = getelementptr inbounds nuw %struct.bio_dgram_pair_st, ptr %51, i32 0, i32 0
  store ptr null, ptr %52, align 8, !tbaa !29
  store i32 1, ptr %2, align 4
  store i32 1, ptr %7, align 4
  br label %53

53:                                               ; preds = %44, %43, %22
  call void @llvm.lifetime.end.p0(i64 8, ptr %6) #8
  call void @llvm.lifetime.end.p0(i64 8, ptr %5) #8
  call void @llvm.lifetime.end.p0(i64 8, ptr %4) #8
  %54 = load i32, ptr %2, align 4
  ret i32 %54
}

; Function Attrs: nounwind uwtable
define internal i32 @dgram_pair_free(ptr noundef %0) #0 {
  %2 = alloca i32, align 4
  %3 = alloca ptr, align 8
  %4 = alloca ptr, align 8
  %5 = alloca i32, align 4
  store ptr %0, ptr %3, align 8, !tbaa !12
  call void @llvm.lifetime.start.p0(i64 8, ptr %4) #8
  %6 = load ptr, ptr %3, align 8, !tbaa !12
  %7 = icmp eq ptr %6, null
  br i1 %7, label %8, label %9

8:                                                ; preds = %1
  store i32 0, ptr %2, align 4
  store i32 1, ptr %5, align 4
  br label %31

9:                                                ; preds = %1
  %10 = load ptr, ptr %3, align 8, !tbaa !12
  %11 = getelementptr inbounds nuw %struct.bio_st, ptr %10, i32 0, i32 10
  %12 = load ptr, ptr %11, align 8, !tbaa !16
  store ptr %12, ptr %4, align 8, !tbaa !23
  %13 = load ptr, ptr %4, align 8, !tbaa !23
  %14 = icmp ne ptr %13, null
  %15 = zext i1 %14 to i32
  %16 = icmp ne i32 %15, 0
  %17 = xor i1 %16, true
  %18 = xor i1 %17, true
  %19 = zext i1 %18 to i32
  %20 = sext i32 %19 to i64
  %21 = call i64 @llvm.expect.i64(i64 %20, i64 1)
  %22 = icmp ne i64 %21, 0
  br i1 %22, label %24, label %23

23:                                               ; preds = %9
  store i32 0, ptr %2, align 4
  store i32 1, ptr %5, align 4
  br label %31

24:                                               ; preds = %9
  %25 = load ptr, ptr %3, align 8, !tbaa !12
  %26 = call i32 @dgram_pair_ctrl_destroy_bio_pair(ptr noundef %25)
  %27 = load ptr, ptr %4, align 8, !tbaa !23
  %28 = getelementptr inbounds nuw %struct.bio_dgram_pair_st, ptr %27, i32 0, i32 6
  %29 = load ptr, ptr %28, align 8, !tbaa !25
  call void @CRYPTO_THREAD_lock_free(ptr noundef %29)
  %30 = load ptr, ptr %4, align 8, !tbaa !23
  call void @CRYPTO_free(ptr noundef %30, ptr noundef @.str.2, i32 noundef 333)
  store i32 1, ptr %2, align 4
  store i32 1, ptr %5, align 4
  br label %31

31:                                               ; preds = %24, %23, %8
  call void @llvm.lifetime.end.p0(i64 8, ptr %4) #8
  %32 = load i32, ptr %2, align 4
  ret i32 %32
}