; Function Attrs: nounwind uwtable
define internal range(i32 0, 2) i32 @dgram_pair_free(ptr noundef captures(address) %0) #1 {
  %2 = icmp eq ptr %0, null
  br i1 %2, label %25, label %3

3:                                                ; preds = %1
  %4 = getelementptr inbounds nuw i8, ptr %0, i64 64
  %5 = load ptr, ptr %4, align 8, !tbaa !8
  %.not = icmp eq ptr %5, null
  br i1 %.not, label %25, label %6, !prof !34

6:                                                ; preds = %3
  %7 = getelementptr inbounds nuw i8, ptr %5, i64 8
  %8 = load ptr, ptr %7, align 8, !tbaa !28
  tail call void @CRYPTO_free(ptr noundef %8, ptr noundef nonnull @.str.2, i32 noundef 48) #7
  tail call void @llvm.memset.p0.i64(ptr noundef nonnull align 8 dereferenceable(24) %7, i8 0, i64 24, i1 false)
  %9 = getelementptr inbounds nuw i8, ptr %0, i64 40
  store i32 0, ptr %9, align 8, !tbaa !30
  %10 = getelementptr inbounds nuw i8, ptr %5, i64 72
  %11 = load ptr, ptr %10, align 8, !tbaa !31
  tail call void @BIO_ADDR_free(ptr noundef %11) #7
  %12 = load ptr, ptr %5, align 8, !tbaa !22
  %13 = icmp eq ptr %12, null
  br i1 %13, label %dgram_pair_ctrl_destroy_bio_pair.exit, label %14

14:                                               ; preds = %6
  %15 = getelementptr inbounds nuw i8, ptr %12, i64 64
  %16 = load ptr, ptr %15, align 8, !tbaa !8
  %17 = load ptr, ptr %16, align 8, !tbaa !22
  %18 = icmp eq ptr %17, %0
  br i1 %18, label %19, label %dgram_pair_ctrl_destroy_bio_pair.exit, !prof !25

19:                                               ; preds = %14
  %20 = getelementptr inbounds nuw i8, ptr %16, i64 8
  %21 = load ptr, ptr %20, align 8, !tbaa !28
  tail call void @CRYPTO_free(ptr noundef %21, ptr noundef nonnull @.str.2, i32 noundef 48) #7
  tail call void @llvm.memset.p0.i64(ptr noundef nonnull align 8 dereferenceable(24) %20, i8 0, i64 24, i1 false)
  %22 = getelementptr inbounds nuw i8, ptr %12, i64 40
  store i32 0, ptr %22, align 8, !tbaa !30
  store ptr null, ptr %5, align 8, !tbaa !22
  store ptr null, ptr %16, align 8, !tbaa !22
  br label %dgram_pair_ctrl_destroy_bio_pair.exit

dgram_pair_ctrl_destroy_bio_pair.exit:            ; preds = %6, %14, %19
  %23 = getelementptr inbounds nuw i8, ptr %5, i64 80
  %24 = load ptr, ptr %23, align 8, !tbaa !18
  tail call void @CRYPTO_THREAD_lock_free(ptr noundef %24) #7
  tail call void @CRYPTO_free(ptr noundef nonnull %5, ptr noundef nonnull @.str.2, i32 noundef 333) #7
  br label %25

25:                                               ; preds = %3, %1, %dgram_pair_ctrl_destroy_bio_pair.exit
  %.0 = phi i32 [ 1, %dgram_pair_ctrl_destroy_bio_pair.exit ], [ 0, %1 ], [ 0, %3 ]
  ret i32 %.0
}